target datalayout = "e-m:e-p270:32:32-p271:32:32-p272:64:64-i64:64-i128:128-f80:128-n8:16:32:64-S128"
target triple = "x86_64-pc-linux-gnu"

%"class.std::__cxx11::basic_string" = type { %"struct.std::__cxx11::basic_string<char>::_Alloc_hider", i64, %union.anon }
%"struct.std::__cxx11::basic_string<char>::_Alloc_hider" = type { ptr }
%union.anon = type { i64, [8 x i8] }
%"class.std::__cxx11::basic_stringstream" = type { %"class.std::basic_iostream.base", %"class.std::__cxx11::basic_stringbuf", %"class.std::basic_ios" }
%"class.std::basic_iostream.base" = type { %"class.std::basic_istream.base", %"class.std::basic_ostream.base" }
%"class.std::basic_istream.base" = type { ptr, i64 }
%"class.std::basic_ostream.base" = type { ptr }
%"class.std::__cxx11::basic_stringbuf" = type { %"class.std::basic_streambuf", i32, %"class.std::__cxx11::basic_string" }
%"class.std::basic_streambuf" = type { ptr, ptr, ptr, ptr, ptr, ptr, ptr, %"class.std::locale" }
%"class.std::locale" = type { ptr }
%"class.std::basic_ios" = type { %"class.std::ios_base", ptr, i8, i8, ptr, ptr, ptr, ptr }
%"class.std::ios_base" = type { ptr, i64, i64, i32, i32, i32, ptr, %"struct.std::ios_base::_Words", [8 x %"struct.std::ios_base::_Words"], i32, ptr, %"class.std::locale" }
%"struct.std::ios_base::_Words" = type { ptr, i64 }
%"struct.std::_Vector_base.135" = type { %"struct.std::_Vector_base<double, std::allocator<double>>::_Vector_impl" }
%"struct.std::_Vector_base<double, std::allocator<double>>::_Vector_impl" = type { %"struct.std::_Vector_base<double, std::allocator<double>>::_Vector_impl_data" }
%"struct.std::_Vector_base<double, std::allocator<double>>::_Vector_impl_data" = type { ptr, ptr, ptr }

@.str.125 = private unnamed_addr constant [3 x i8] c", \00", align 1
@.str.508 = private unnamed_addr constant [2 x i8] c"{\00", align 1
@.str.509 = private unnamed_addr constant [2 x i8] c"}\00", align 1

; Function Attrs: mustprogress nounwind uwtable
define linkonce_odr hidden noundef nonnull align 8 dereferenceable(8) ptr @_ZNKSt6vectorIdSaIdEEixEm(ptr noundef nonnull align 8 dereferenceable(24) %0, i64 noundef %1) #5 comdat align 2 {
  %3 = alloca ptr, align 8
  %4 = alloca i64, align 8
  store ptr %0, ptr %3, align 8
  store i64 %1, ptr %4, align 8
  %5 = load ptr, ptr %3, align 8
  %6 = getelementptr inbounds %"struct.std::_Vector_base.135", ptr %5, i32 0, i32 0
  %7 = getelementptr inbounds %"struct.std::_Vector_base<double, std::allocator<double>>::_Vector_impl_data", ptr %6, i32 0, i32 0
  %8 = load ptr, ptr %7, align 8
  %9 = load i64, ptr %4, align 8
  %10 = getelementptr inbounds double, ptr %8, i64 %9
  ret ptr %10
}

; Function Attrs: mustprogress nounwind uwtable
define linkonce_odr hidden noundef i64 @_ZNKSt6vectorIdSaIdEE4sizeEv(ptr noundef nonnull align 8 dereferenceable(24) %0) #5 comdat align 2 {
  %2 = alloca ptr, align 8
  store ptr %0, ptr %2, align 8
  %3 = load ptr, ptr %2, align 8
  %4 = getelementptr inbounds %"struct.std::_Vector_base.135", ptr %3, i32 0, i32 0
  %5 = getelementptr inbounds %"struct.std::_Vector_base<double, std::allocator<double>>::_Vector_impl_data", ptr %4, i32 0, i32 1
  %6 = load ptr, ptr %5, align 8
  %7 = getelementptr inbounds %"struct.std::_Vector_base.135", ptr %3, i32 0, i32 0
  %8 = getelementptr inbounds %"struct.std::_Vector_base<double, std::allocator<double>>::_Vector_impl_data", ptr %7, i32 0, i32 0
  %9 = load ptr, ptr %8, align 8
  %10 = ptrtoint ptr %6 to i64
  %11 = ptrtoint ptr %9 to i64
  %12 = sub i64 %10, %11
  %13 = sdiv exact i64 %12, 8
  ret i64 %13
}

; Function Attrs: mustprogress uwtable
define void @_ZN6casadi13CodeGenerator11initializerB5cxx11ERKSt6vectorIdSaIdEE(ptr dead_on_unwind noalias writable sret(%"class.std::__cxx11::basic_string") align 8 %0, ptr noundef nonnull align 8 dereferenceable(3097) %1, ptr noundef nonnull align 8 dereferenceable(24) %2) #4 align 2 personality ptr @__gxx_personality_v0 {
  %4 = alloca ptr, align 8
  %5 = alloca ptr, align 8
  %6 = alloca ptr, align 8
  %7 = alloca %"class.std::__cxx11::basic_stringstream", align 8
  %8 = alloca ptr, align 8
  %9 = alloca i32, align 4
  %10 = alloca i64, align 8
  %11 = alloca %"class.std::__cxx11::basic_string", align 8
  store ptr %0, ptr %4, align 8
  store ptr %1, ptr %5, align 8
  store ptr %2, ptr %6, align 8
  %12 = load ptr, ptr %5, align 8
  call void @_ZNSt7__cxx1118basic_stringstreamIcSt11char_traitsIcESaIcEEC1Ev(ptr noundef nonnull align 8 dereferenceable(128) %7)
  %13 = getelementptr inbounds i8, ptr %7, i64 16
  %14 = invoke noundef nonnull align 8 dereferenceable(8) ptr @_ZStlsISt11char_traitsIcEERSt13basic_ostreamIcT_ES5_PKc(ptr noundef nonnull align 8 dereferenceable(8) %13, ptr noundef @.str.508)
          to label %15 unwind label %28

15:                                               ; preds = %3
  store i64 0, ptr %10, align 8
  br label %16

16:                                               ; preds = %41, %15
  %17 = load i64, ptr %10, align 8
  %18 = load ptr, ptr %6, align 8
  %19 = call noundef i64 @_ZNKSt6vectorIdSaIdEE4sizeEv(ptr noundef nonnull align 8 dereferenceable(24) %18) #3
  %20 = icmp ult i64 %17, %19
  br i1 %20, label %21, label %48

21:                                               ; preds = %16
  %22 = load i64, ptr %10, align 8
  %23 = icmp ne i64 %22, 0
  br i1 %23, label %24, label %32

24:                                               ; preds = %21
  %25 = getelementptr inbounds i8, ptr %7, i64 16
  %26 = invoke noundef nonnull align 8 dereferenceable(8) ptr @_ZStlsISt11char_traitsIcEERSt13basic_ostreamIcT_ES5_PKc(ptr noundef nonnull align 8 dereferenceable(8) %25, ptr noundef @.str.125)
          to label %27 unwind label %28

27:                                               ; preds = %24
  br label %32

28:                                               ; preds = %51, %48, %32, %24, %3
  %29 = landingpad { ptr, i32 }
          cleanup
  %30 = extractvalue { ptr, i32 } %29, 0
  store ptr %30, ptr %8, align 8
  %31 = extractvalue { ptr, i32 } %29, 1
  store i32 %31, ptr %9, align 4
  br label %53

32:                                               ; preds = %27, %21
  %33 = getelementptr inbounds i8, ptr %7, i64 16
  %34 = load ptr, ptr %6, align 8
  %35 = load i64, ptr %10, align 8
  %36 = call noundef nonnull align 8 dereferenceable(8) ptr @_ZNKSt6vectorIdSaIdEEixEm(ptr noundef nonnull align 8 dereferenceable(24) %34, i64 noundef %35) #3
  %37 = load double, ptr %36, align 8
  invoke void @_ZN6casadi13CodeGenerator8constantB5cxx11Ed(ptr dead_on_unwind writable sret(%"class.std::__cxx11::basic_string") align 8 %11, ptr noundef nonnull align 8 dereferenceable(3097) %12, double noundef %37)
          to label %38 unwind label %28

38:                                               ; preds = %32
  %39 = invoke noundef nonnull align 8 dereferenceable(8) ptr @_ZStlsIcSt11char_traitsIcESaIcEERSt13basic_ostreamIT_T0_ES7_RKNSt7__cxx1112basic_stringIS4_S5_T1_EE(ptr noundef nonnull align 8 dereferenceable(8) %33, ptr noundef nonnull align 8 dereferenceable(32) %11)
          to label %40 unwind label %44

40:                                               ; preds = %38
  call void @_ZNSt7__cxx1112basic_stringIcSt11char_traitsIcESaIcEED1Ev(ptr noundef nonnull align 8 dereferenceable(32) %11) #3
  br label %41

41:                                               ; preds = %40
  %42 = load i64, ptr %10, align 8
  %43 = add nsw i64 %42, 1
  store i64 %43, ptr %10, align 8
  br label %16, !llvm.loop !24

44:                                               ; preds = %38
  %45 = landingpad { ptr, i32 }
          cleanup
  %46 = extractvalue { ptr, i32 } %45, 0
  store ptr %46, ptr %8, align 8
  %47 = extractvalue { ptr, i32 } %45, 1
  store i32 %47, ptr %9, align 4
  call void @_ZNSt7__cxx1112basic_stringIcSt11char_traitsIcESaIcEED1Ev(ptr noundef nonnull align 8 dereferenceable(32) %11) #3
  br label %53

48:                                               ; preds = %16
  %49 = getelementptr inbounds i8, ptr %7, i64 16
  %50 = invoke noundef nonnull align 8 dereferenceable(8) ptr @_ZStlsISt11char_traitsIcEERSt13basic_ostreamIcT_ES5_PKc(ptr noundef nonnull align 8 dereferenceable(8) %49, ptr noundef @.str.509)
          to label %51 unwind label %28

51:                                               ; preds = %48
  invoke void @_ZNKSt7__cxx1118basic_stringstreamIcSt11char_traitsIcESaIcEE3strEv(ptr dead_on_unwind writable sret(%"class.std::__cxx11::basic_string") align 8 %0, ptr noundef nonnull align 8 dereferenceable(128) %7)
          to label %52 unwind label %28

52:                                               ; preds = %51
  call void @_ZNSt7__cxx1118basic_stringstreamIcSt11char_traitsIcESaIcEED1Ev(ptr noundef nonnull align 8 dereferenceable(128) %7) #3
  ret void

53:                                               ; preds = %44, %28
  call void @_ZNSt7__cxx1118basic_stringstreamIcSt11char_traitsIcESaIcEED1Ev(ptr noundef nonnull align 8 dereferenceable(128) %7) #3
  br label %54

54:                                               ; preds = %53
  %55 = load ptr, ptr %8, align 8
  %56 = load i32, ptr %9, align 4
  %57 = insertvalue { ptr, i32 } poison, ptr %55, 0
  %58 = insertvalue { ptr, i32 } %57, i32 %56, 1
  resume { ptr, i32 } %58
}