; Function Attrs: mustprogress uwtable
define void @_ZN6casadi13CodeGenerator11initializerB5cxx11ERKSt6vectorIdSaIdEE(ptr dead_on_unwind noalias writable sret(%"class.std::__cxx11::basic_string") align 8 %0, ptr noundef nonnull align 8 dereferenceable(3097) %1, ptr nocapture noundef nonnull readonly align 8 dereferenceable(24) %2) local_unnamed_addr #3 align 2 personality ptr @__gxx_personality_v0 {
  %4 = alloca %"class.std::__cxx11::basic_stringstream", align 8
  %5 = alloca %"class.std::__cxx11::basic_string", align 8
  call void @_ZNSt7__cxx1118basic_stringstreamIcSt11char_traitsIcESaIcEEC1Ev(ptr noundef nonnull align 8 dereferenceable(128) %4)
  %6 = getelementptr inbounds i8, ptr %4, i64 16
  %7 = invoke noundef nonnull align 8 dereferenceable(8) ptr @_ZStlsISt11char_traitsIcEERSt13basic_ostreamIcT_ES5_PKc(ptr noundef nonnull align 8 dereferenceable(8) %6, ptr noundef nonnull @.str.508)
          to label %.preheader unwind label %.loopexit.split-lp

.preheader:                                       ; preds = %3
  %8 = getelementptr inbounds i8, ptr %2, i64 8
  %9 = load ptr, ptr %8, align 8
  %10 = load ptr, ptr %2, align 8
  %.not13 = icmp eq ptr %9, %10
  br i1 %.not13, label %._crit_edge, label %.lr.ph

.lr.ph:                                           ; preds = %.preheader, %19
  %11 = phi ptr [ %22, %19 ], [ %10, %.preheader ]
  %.012 = phi i64 [ %20, %19 ], [ 0, %.preheader ]
  %.not = icmp eq i64 %.012, 0
  br i1 %.not, label %.split, label %12

12:                                               ; preds = %.lr.ph
  %13 = invoke noundef nonnull align 8 dereferenceable(8) ptr @_ZStlsISt11char_traitsIcEERSt13basic_ostreamIcT_ES5_PKc(ptr noundef nonnull align 8 dereferenceable(8) %6, ptr noundef nonnull @.str.125)
          to label %.split10 unwind label %.loopexit

.split10:                                         ; preds = %12
  %14 = load ptr, ptr %2, align 8
  %15 = getelementptr inbounds double, ptr %14, i64 %.012
  br label %.split

.loopexit:                                        ; preds = %12, %.split
  %lpad.loopexit = landingpad { ptr, i32 }
          cleanup
  br label %33

.loopexit.split-lp:                               ; preds = %3, %._crit_edge, %31
  %lpad.loopexit.split-lp = landingpad { ptr, i32 }
          cleanup
  br label %33

.split:                                           ; preds = %.lr.ph, %.split10
  %phi.call = phi ptr [ %15, %.split10 ], [ %11, %.lr.ph ]
  %16 = load double, ptr %phi.call, align 8
  invoke void @_ZN6casadi13CodeGenerator8constantB5cxx11Ed(ptr dead_on_unwind nonnull writable sret(%"class.std::__cxx11::basic_string") align 8 %5, ptr noundef nonnull align 8 dereferenceable(3097) %1, double noundef %16)
          to label %17 unwind label %.loopexit

17:                                               ; preds = %.split
  %18 = invoke noundef nonnull align 8 dereferenceable(8) ptr @_ZStlsIcSt11char_traitsIcESaIcEERSt13basic_ostreamIT_T0_ES7_RKNSt7__cxx1112basic_stringIS4_S5_T1_EE(ptr noundef nonnull align 8 dereferenceable(8) %6, ptr noundef nonnull align 8 dereferenceable(32) %5)
          to label %19 unwind label %28

19:                                               ; preds = %17
  call void @_ZNSt7__cxx1112basic_stringIcSt11char_traitsIcESaIcEED1Ev(ptr noundef nonnull align 8 dereferenceable(32) %5) #19
  %20 = add nuw nsw i64 %.012, 1
  %21 = load ptr, ptr %8, align 8
  %22 = load ptr, ptr %2, align 8
  %23 = ptrtoint ptr %21 to i64
  %24 = ptrtoint ptr %22 to i64
  %25 = sub i64 %23, %24
  %26 = ashr exact i64 %25, 3
  %27 = icmp ult i64 %20, %26
  br i1 %27, label %.lr.ph, label %._crit_edge, !llvm.loop !129

28:                                               ; preds = %17
  %29 = landingpad { ptr, i32 }
          cleanup
  call void @_ZNSt7__cxx1112basic_stringIcSt11char_traitsIcESaIcEED1Ev(ptr noundef nonnull align 8 dereferenceable(32) %5) #19
  br label %33

._crit_edge:                                      ; preds = %19, %.preheader
  %30 = invoke noundef nonnull align 8 dereferenceable(8) ptr @_ZStlsISt11char_traitsIcEERSt13basic_ostreamIcT_ES5_PKc(ptr noundef nonnull align 8 dereferenceable(8) %6, ptr noundef nonnull @.str.509)
          to label %31 unwind label %.loopexit.split-lp

31:                                               ; preds = %._crit_edge
  invoke void @_ZNKSt7__cxx1118basic_stringstreamIcSt11char_traitsIcESaIcEE3strEv(ptr dead_on_unwind writable sret(%"class.std::__cxx11::basic_string") align 8 %0, ptr noundef nonnull align 8 dereferenceable(128) %4)
          to label %32 unwind label %.loopexit.split-lp

32:                                               ; preds = %31
  call void @_ZNSt7__cxx1118basic_stringstreamIcSt11char_traitsIcESaIcEED1Ev(ptr noundef nonnull align 8 dereferenceable(128) %4) #19
  ret void

33:                                               ; preds = %.loopexit, %.loopexit.split-lp, %28
  %.pn = phi { ptr, i32 } [ %29, %28 ], [ %lpad.loopexit, %.loopexit ], [ %lpad.loopexit.split-lp, %.loopexit.split-lp ]
  call void @_ZNSt7__cxx1118basic_stringstreamIcSt11char_traitsIcESaIcEED1Ev(ptr noundef nonnull align 8 dereferenceable(128) %4) #19
  resume { ptr, i32 } %.pn
}